target datalayout = "e-m:e-p270:32:32-p271:32:32-p272:64:64-i64:64-i128:128-f80:128-n8:16:32:64-S128"
target triple = "x86_64-pc-linux-gnu"

%struct.gz_state = type { %struct.gzFile_s, i32, i32, ptr, i32, i32, ptr, ptr, i32, i32, i64, i32, i32, i32, i32, i32, i64, i32, i32, ptr, %struct.z_stream_s }
%struct.gzFile_s = type { i32, ptr, i64 }
%struct.z_stream_s = type { ptr, i32, i64, ptr, i32, i64, ptr, ptr, ptr, ptr, ptr, i32, i64, i64 }

@.str.3 = private unnamed_addr constant [14 x i8] c"out of memory\00", align 1
@.str.4 = private unnamed_addr constant [6 x i8] c"1.3.1\00", align 1

; Function Attrs: nounwind uwtable
define internal i32 @gz_init(ptr noundef %0) #0 {
  %2 = alloca i32, align 4
  %3 = alloca ptr, align 8
  %4 = alloca i32, align 4
  %5 = alloca ptr, align 8
  %6 = alloca i32, align 4
  store ptr %0, ptr %3, align 8, !tbaa !9
  call void @llvm.lifetime.start.p0(i64 4, ptr %4) #10
  call void @llvm.lifetime.start.p0(i64 8, ptr %5) #10
  %7 = load ptr, ptr %3, align 8, !tbaa !9
  %8 = getelementptr inbounds nuw %struct.gz_state, ptr %7, i32 0, i32 20
  store ptr %8, ptr %5, align 8, !tbaa !31
  %9 = load ptr, ptr %3, align 8, !tbaa !9
  %10 = getelementptr inbounds nuw %struct.gz_state, ptr %9, i32 0, i32 5
  %11 = load i32, ptr %10, align 4, !tbaa !40
  %12 = shl i32 %11, 1
  %13 = zext i32 %12 to i64
  %14 = call noalias ptr @malloc(i64 noundef %13) #12
  %15 = load ptr, ptr %3, align 8, !tbaa !9
  %16 = getelementptr inbounds nuw %struct.gz_state, ptr %15, i32 0, i32 6
  store ptr %14, ptr %16, align 8, !tbaa !25
  %17 = load ptr, ptr %3, align 8, !tbaa !9
  %18 = getelementptr inbounds nuw %struct.gz_state, ptr %17, i32 0, i32 6
  %19 = load ptr, ptr %18, align 8, !tbaa !25
  %20 = icmp eq ptr %19, null
  br i1 %20, label %21, label %23

21:                                               ; preds = %1
  %22 = load ptr, ptr %3, align 8, !tbaa !9
  call void @cm_zlib_gz_error(ptr noundef %22, i32 noundef -4, ptr noundef @.str.3)
  store i32 -1, ptr %2, align 4
  store i32 1, ptr %6, align 4
  br label %101

23:                                               ; preds = %1
  %24 = load ptr, ptr %3, align 8, !tbaa !9
  %25 = getelementptr inbounds nuw %struct.gz_state, ptr %24, i32 0, i32 8
  %26 = load i32, ptr %25, align 8, !tbaa !41
  %27 = icmp ne i32 %26, 0
  br i1 %27, label %73, label %28

28:                                               ; preds = %23
  %29 = load ptr, ptr %3, align 8, !tbaa !9
  %30 = getelementptr inbounds nuw %struct.gz_state, ptr %29, i32 0, i32 5
  %31 = load i32, ptr %30, align 4, !tbaa !40
  %32 = zext i32 %31 to i64
  %33 = call noalias ptr @malloc(i64 noundef %32) #12
  %34 = load ptr, ptr %3, align 8, !tbaa !9
  %35 = getelementptr inbounds nuw %struct.gz_state, ptr %34, i32 0, i32 7
  store ptr %33, ptr %35, align 8, !tbaa !42
  %36 = load ptr, ptr %3, align 8, !tbaa !9
  %37 = getelementptr inbounds nuw %struct.gz_state, ptr %36, i32 0, i32 7
  %38 = load ptr, ptr %37, align 8, !tbaa !42
  %39 = icmp eq ptr %38, null
  br i1 %39, label %40, label %45

40:                                               ; preds = %28
  %41 = load ptr, ptr %3, align 8, !tbaa !9
  %42 = getelementptr inbounds nuw %struct.gz_state, ptr %41, i32 0, i32 6
  %43 = load ptr, ptr %42, align 8, !tbaa !25
  call void @free(ptr noundef %43) #10
  %44 = load ptr, ptr %3, align 8, !tbaa !9
  call void @cm_zlib_gz_error(ptr noundef %44, i32 noundef -4, ptr noundef @.str.3)
  store i32 -1, ptr %2, align 4
  store i32 1, ptr %6, align 4
  br label %101

45:                                               ; preds = %28
  %46 = load ptr, ptr %5, align 8, !tbaa !31
  %47 = getelementptr inbounds nuw %struct.z_stream_s, ptr %46, i32 0, i32 8
  store ptr null, ptr %47, align 8, !tbaa !43
  %48 = load ptr, ptr %5, align 8, !tbaa !31
  %49 = getelementptr inbounds nuw %struct.z_stream_s, ptr %48, i32 0, i32 9
  store ptr null, ptr %49, align 8, !tbaa !44
  %50 = load ptr, ptr %5, align 8, !tbaa !31
  %51 = getelementptr inbounds nuw %struct.z_stream_s, ptr %50, i32 0, i32 10
  store ptr null, ptr %51, align 8, !tbaa !45
  %52 = load ptr, ptr %5, align 8, !tbaa !31
  %53 = load ptr, ptr %3, align 8, !tbaa !9
  %54 = getelementptr inbounds nuw %struct.gz_state, ptr %53, i32 0, i32 13
  %55 = load i32, ptr %54, align 8, !tbaa !46
  %56 = load ptr, ptr %3, align 8, !tbaa !9
  %57 = getelementptr inbounds nuw %struct.gz_state, ptr %56, i32 0, i32 14
  %58 = load i32, ptr %57, align 4, !tbaa !47
  %59 = call i32 @cm_zlib_deflateInit2_(ptr noundef %52, i32 noundef %55, i32 noundef 8, i32 noundef 31, i32 noundef 8, i32 noundef %58, ptr noundef @.str.4, i32 noundef 112)
  store i32 %59, ptr %4, align 4, !tbaa !10
  %60 = load i32, ptr %4, align 4, !tbaa !10
  %61 = icmp ne i32 %60, 0
  br i1 %61, label %62, label %70

62:                                               ; preds = %45
  %63 = load ptr, ptr %3, align 8, !tbaa !9
  %64 = getelementptr inbounds nuw %struct.gz_state, ptr %63, i32 0, i32 7
  %65 = load ptr, ptr %64, align 8, !tbaa !42
  call void @free(ptr noundef %65) #10
  %66 = load ptr, ptr %3, align 8, !tbaa !9
  %67 = getelementptr inbounds nuw %struct.gz_state, ptr %66, i32 0, i32 6
  %68 = load ptr, ptr %67, align 8, !tbaa !25
  call void @free(ptr noundef %68) #10
  %69 = load ptr, ptr %3, align 8, !tbaa !9
  call void @cm_zlib_gz_error(ptr noundef %69, i32 noundef -4, ptr noundef @.str.3)
  store i32 -1, ptr %2, align 4
  store i32 1, ptr %6, align 4
  br label %101

70:                                               ; preds = %45
  %71 = load ptr, ptr %5, align 8, !tbaa !31
  %72 = getelementptr inbounds nuw %struct.z_stream_s, ptr %71, i32 0, i32 0
  store ptr null, ptr %72, align 8, !tbaa !34
  br label %73

73:                                               ; preds = %70, %23
  %74 = load ptr, ptr %3, align 8, !tbaa !9
  %75 = getelementptr inbounds nuw %struct.gz_state, ptr %74, i32 0, i32 5
  %76 = load i32, ptr %75, align 4, !tbaa !40
  %77 = load ptr, ptr %3, align 8, !tbaa !9
  %78 = getelementptr inbounds nuw %struct.gz_state, ptr %77, i32 0, i32 4
  store i32 %76, ptr %78, align 8, !tbaa !21
  %79 = load ptr, ptr %3, align 8, !tbaa !9
  %80 = getelementptr inbounds nuw %struct.gz_state, ptr %79, i32 0, i32 8
  %81 = load i32, ptr %80, align 8, !tbaa !41
  %82 = icmp ne i32 %81, 0
  br i1 %82, label %100, label %83

83:                                               ; preds = %73
  %84 = load ptr, ptr %3, align 8, !tbaa !9
  %85 = getelementptr inbounds nuw %struct.gz_state, ptr %84, i32 0, i32 4
  %86 = load i32, ptr %85, align 8, !tbaa !21
  %87 = load ptr, ptr %5, align 8, !tbaa !31
  %88 = getelementptr inbounds nuw %struct.z_stream_s, ptr %87, i32 0, i32 4
  store i32 %86, ptr %88, align 8, !tbaa !48
  %89 = load ptr, ptr %3, align 8, !tbaa !9
  %90 = getelementptr inbounds nuw %struct.gz_state, ptr %89, i32 0, i32 7
  %91 = load ptr, ptr %90, align 8, !tbaa !42
  %92 = load ptr, ptr %5, align 8, !tbaa !31
  %93 = getelementptr inbounds nuw %struct.z_stream_s, ptr %92, i32 0, i32 3
  store ptr %91, ptr %93, align 8, !tbaa !49
  %94 = load ptr, ptr %5, align 8, !tbaa !31
  %95 = getelementptr inbounds nuw %struct.z_stream_s, ptr %94, i32 0, i32 3
  %96 = load ptr, ptr %95, align 8, !tbaa !49
  %97 = load ptr, ptr %3, align 8, !tbaa !9
  %98 = getelementptr inbounds nuw %struct.gz_state, ptr %97, i32 0, i32 0
  %99 = getelementptr inbounds nuw %struct.gzFile_s, ptr %98, i32 0, i32 1
  store ptr %96, ptr %99, align 8, !tbaa !50
  br label %100

100:                                              ; preds = %83, %73
  store i32 0, ptr %2, align 4
  store i32 1, ptr %6, align 4
  br label %101

101:                                              ; preds = %100, %62, %40, %21
  call void @llvm.lifetime.end.p0(i64 8, ptr %5) #10
  call void @llvm.lifetime.end.p0(i64 4, ptr %4) #10
  %102 = load i32, ptr %2, align 4
  ret i32 %102
}